target datalayout = "e-m:e-p270:32:32-p271:32:32-p272:64:64-i64:64-i128:128-f80:128-n8:16:32:64-S128"
target triple = "x86_64-pc-linux-gnu"

%struct.H5D_chunk_common_ud_t = type { ptr, ptr, ptr }
%struct.H5D_btree_dbg_t = type { %struct.H5D_chunk_common_ud_t, i32 }
%struct.H5O_layout_chunk_t = type { i32, i8, i32, [33 x i32], i32, i32, i64, i64, [33 x i64], [33 x i64], [33 x i64], [33 x i64], %union.anon.0 }
%union.anon.0 = type { %struct.H5O_layout_chunk_earray_t }
%struct.H5O_layout_chunk_earray_t = type { %struct.anon.1, i32, [33 x i32], [33 x i64], [33 x i64] }
%struct.anon.1 = type { i8, i8, i8, i8, i8 }
%struct.H5D_btree_key_t = type { [33 x i64], i32, i32 }

@H5D_init_g = external global i8, align 1
@H5_libterm_g = external global i8, align 1
@.str.30 = private unnamed_addr constant [18 x i8] c"%*s%-*s %u bytes\0A\00", align 1
@.str.31 = private unnamed_addr constant [1 x i8] zeroinitializer, align 1
@.str.32 = private unnamed_addr constant [12 x i8] c"Chunk size:\00", align 1
@.str.33 = private unnamed_addr constant [16 x i8] c"%*s%-*s 0x%08x\0A\00", align 1
@.str.34 = private unnamed_addr constant [13 x i8] c"Filter mask:\00", align 1
@.str.35 = private unnamed_addr constant [10 x i8] c"%*s%-*s {\00", align 1
@.str.36 = private unnamed_addr constant [16 x i8] c"Logical offset:\00", align 1
@.str.37 = private unnamed_addr constant [6 x i8] c"%s%lu\00", align 1
@.str.38 = private unnamed_addr constant [3 x i8] c", \00", align 1
@.str.39 = private unnamed_addr constant [3 x i8] c"}\0A\00", align 1

; Function Attrs: nounwind uwtable
define internal i32 @H5D__btree_debug_key(ptr noundef %0, i32 noundef %1, i32 noundef %2, ptr noundef %3, ptr noundef %4) #0 {
  %6 = alloca ptr, align 8
  %7 = alloca i32, align 4
  %8 = alloca i32, align 4
  %9 = alloca ptr, align 8
  %10 = alloca ptr, align 8
  %11 = alloca ptr, align 8
  %12 = alloca ptr, align 8
  %13 = alloca i32, align 4
  store ptr %0, ptr %6, align 8, !tbaa !54
  store i32 %1, ptr %7, align 4, !tbaa !12
  store i32 %2, ptr %8, align 4, !tbaa !12
  store ptr %3, ptr %9, align 8, !tbaa !41
  store ptr %4, ptr %10, align 8, !tbaa !41
  call void @llvm.lifetime.start.p0(i64 8, ptr %11) #8
  %14 = load ptr, ptr %9, align 8, !tbaa !41
  store ptr %14, ptr %11, align 8, !tbaa !78
  call void @llvm.lifetime.start.p0(i64 8, ptr %12) #8
  %15 = load ptr, ptr %10, align 8, !tbaa !41
  store ptr %15, ptr %12, align 8, !tbaa !103
  call void @llvm.lifetime.start.p0(i64 4, ptr %13) #8
  %16 = load i8, ptr @H5D_init_g, align 1, !tbaa !14, !range !16, !noundef !17
  %17 = trunc i8 %16 to i1
  br i1 %17, label %22, label %18

18:                                               ; preds = %5
  %19 = load i8, ptr @H5_libterm_g, align 1, !tbaa !14, !range !16, !noundef !17
  %20 = trunc i8 %19 to i1
  %21 = xor i1 %20, true
  br label %22

22:                                               ; preds = %18, %5
  %23 = phi i1 [ true, %5 ], [ %21, %18 ]
  %24 = xor i1 %23, true
  %25 = xor i1 %24, true
  %26 = zext i1 %25 to i32
  %27 = sext i32 %26 to i64
  %28 = call i64 @llvm.expect.i64(i64 %27, i64 1)
  %29 = icmp ne i64 %28, 0
  br i1 %29, label %30, label %84

30:                                               ; preds = %22
  %31 = load ptr, ptr %6, align 8, !tbaa !54
  %32 = load i32, ptr %7, align 4, !tbaa !12
  %33 = load i32, ptr %8, align 4, !tbaa !12
  %34 = load ptr, ptr %11, align 8, !tbaa !78
  %35 = getelementptr inbounds nuw %struct.H5D_btree_key_t, ptr %34, i32 0, i32 1
  %36 = load i32, ptr %35, align 8, !tbaa !86
  %37 = call i32 (ptr, ptr, ...) @fprintf(ptr noundef %31, ptr noundef @.str.30, i32 noundef %32, ptr noundef @.str.31, i32 noundef %33, ptr noundef @.str.32, i32 noundef %36) #8
  %38 = load ptr, ptr %6, align 8, !tbaa !54
  %39 = load i32, ptr %7, align 4, !tbaa !12
  %40 = load i32, ptr %8, align 4, !tbaa !12
  %41 = load ptr, ptr %11, align 8, !tbaa !78
  %42 = getelementptr inbounds nuw %struct.H5D_btree_key_t, ptr %41, i32 0, i32 2
  %43 = load i32, ptr %42, align 4, !tbaa !89
  %44 = call i32 (ptr, ptr, ...) @fprintf(ptr noundef %38, ptr noundef @.str.33, i32 noundef %39, ptr noundef @.str.31, i32 noundef %40, ptr noundef @.str.34, i32 noundef %43) #8
  %45 = load ptr, ptr %6, align 8, !tbaa !54
  %46 = load i32, ptr %7, align 4, !tbaa !12
  %47 = load i32, ptr %8, align 4, !tbaa !12
  %48 = call i32 (ptr, ptr, ...) @fprintf(ptr noundef %45, ptr noundef @.str.35, i32 noundef %46, ptr noundef @.str.31, i32 noundef %47, ptr noundef @.str.36) #8
  store i32 0, ptr %13, align 4, !tbaa !12
  br label %49

49:                                               ; preds = %78, %30
  %50 = load i32, ptr %13, align 4, !tbaa !12
  %51 = load ptr, ptr %12, align 8, !tbaa !103
  %52 = getelementptr inbounds nuw %struct.H5D_btree_dbg_t, ptr %51, i32 0, i32 1
  %53 = load i32, ptr %52, align 8, !tbaa !68
  %54 = icmp ult i32 %50, %53
  br i1 %54, label %55, label %81

55:                                               ; preds = %49
  %56 = load ptr, ptr %6, align 8, !tbaa !54
  %57 = load i32, ptr %13, align 4, !tbaa !12
  %58 = icmp ne i32 %57, 0
  %59 = select i1 %58, ptr @.str.38, ptr @.str.31
  %60 = load ptr, ptr %11, align 8, !tbaa !78
  %61 = getelementptr inbounds nuw %struct.H5D_btree_key_t, ptr %60, i32 0, i32 0
  %62 = load i32, ptr %13, align 4, !tbaa !12
  %63 = zext i32 %62 to i64
  %64 = getelementptr inbounds nuw [33 x i64], ptr %61, i64 0, i64 %63
  %65 = load i64, ptr %64, align 8, !tbaa !10
  %66 = load ptr, ptr %12, align 8, !tbaa !103
  %67 = getelementptr inbounds nuw %struct.H5D_btree_dbg_t, ptr %66, i32 0, i32 0
  %68 = getelementptr inbounds nuw %struct.H5D_chunk_common_ud_t, ptr %67, i32 0, i32 0
  %69 = load ptr, ptr %68, align 8, !tbaa !64
  %70 = getelementptr inbounds nuw %struct.H5O_layout_chunk_t, ptr %69, i32 0, i32 3
  %71 = load i32, ptr %13, align 4, !tbaa !12
  %72 = zext i32 %71 to i64
  %73 = getelementptr inbounds nuw [33 x i32], ptr %70, i64 0, i64 %72
  %74 = load i32, ptr %73, align 4, !tbaa !12
  %75 = zext i32 %74 to i64
  %76 = mul i64 %65, %75
  %77 = call i32 (ptr, ptr, ...) @fprintf(ptr noundef %56, ptr noundef @.str.37, ptr noundef %59, i64 noundef %76) #8
  br label %78

78:                                               ; preds = %55
  %79 = load i32, ptr %13, align 4, !tbaa !12
  %80 = add i32 %79, 1
  store i32 %80, ptr %13, align 4, !tbaa !12
  br label %49, !llvm.loop !105

81:                                               ; preds = %49
  %82 = load ptr, ptr %6, align 8, !tbaa !54
  %83 = call i32 @fputs(ptr noundef @.str.39, ptr noundef %82)
  br label %84

84:                                               ; preds = %81, %22
  call void @llvm.lifetime.end.p0(i64 4, ptr %13) #8
  call void @llvm.lifetime.end.p0(i64 8, ptr %12) #8
  call void @llvm.lifetime.end.p0(i64 8, ptr %11) #8
  ret i32 0
}