; Function Attrs: nofree nounwind uwtable
define internal noundef i32 @H5D__btree_debug_key(ptr noundef captures(none) %0, i32 noundef %1, i32 noundef %2, ptr noundef readonly captures(none) %3, ptr noundef readonly captures(none) %4) #5 {
  %6 = load i8, ptr @H5D_init_g, align 1, !tbaa !3, !range !7, !noundef !8
  %7 = trunc nuw i8 %6 to i1
  %8 = load i8, ptr @H5_libterm_g, align 1, !range !7
  %9 = trunc nuw i8 %8 to i1
  %10 = xor i1 %9, true
  %11 = select i1 %7, i1 true, i1 %10
  br i1 %11, label %12, label %36, !prof !9

12:                                               ; preds = %5
  %13 = getelementptr inbounds nuw i8, ptr %3, i64 264
  %14 = load i32, ptr %13, align 8, !tbaa !57
  %15 = tail call i32 (ptr, ptr, ...) @fprintf(ptr noundef %0, ptr noundef nonnull @.str.30, i32 noundef %1, ptr noundef nonnull @.str.31, i32 noundef %2, ptr noundef nonnull @.str.32, i32 noundef %14) #15
  %16 = getelementptr inbounds nuw i8, ptr %3, i64 268
  %17 = load i32, ptr %16, align 4, !tbaa !60
  %18 = tail call i32 (ptr, ptr, ...) @fprintf(ptr noundef %0, ptr noundef nonnull @.str.33, i32 noundef %1, ptr noundef nonnull @.str.31, i32 noundef %2, ptr noundef nonnull @.str.34, i32 noundef %17) #15
  %19 = tail call i32 (ptr, ptr, ...) @fprintf(ptr noundef %0, ptr noundef nonnull @.str.35, i32 noundef %1, ptr noundef nonnull @.str.31, i32 noundef %2, ptr noundef nonnull @.str.36) #15
  %20 = getelementptr inbounds nuw i8, ptr %4, i64 24
  %21 = load i32, ptr %20, align 8, !tbaa !46
  %.not23 = icmp eq i32 %21, 0
  br i1 %.not23, label %._crit_edge, label %.lr.ph

.lr.ph:                                           ; preds = %12, %.lr.ph
  %indvars.iv = phi i64 [ %indvars.iv.next, %.lr.ph ], [ 0, %12 ]
  %.not = icmp eq i64 %indvars.iv, 0
  %22 = select i1 %.not, ptr @.str.31, ptr @.str.38
  %23 = getelementptr inbounds nuw [33 x i64], ptr %3, i64 0, i64 %indvars.iv
  %24 = load i64, ptr %23, align 8, !tbaa !20
  %25 = load ptr, ptr %4, align 8, !tbaa !42
  %26 = getelementptr inbounds nuw i8, ptr %25, i64 12
  %27 = getelementptr inbounds nuw [33 x i32], ptr %26, i64 0, i64 %indvars.iv
  %28 = load i32, ptr %27, align 4, !tbaa !36
  %29 = zext i32 %28 to i64
  %30 = mul i64 %24, %29
  %31 = tail call i32 (ptr, ptr, ...) @fprintf(ptr noundef %0, ptr noundef nonnull @.str.37, ptr noundef nonnull %22, i64 noundef %30) #15
  %indvars.iv.next = add nuw nsw i64 %indvars.iv, 1
  %32 = load i32, ptr %20, align 8, !tbaa !46
  %33 = zext i32 %32 to i64
  %34 = icmp samesign ult i64 %indvars.iv.next, %33
  br i1 %34, label %.lr.ph, label %._crit_edge, !llvm.loop !77

._crit_edge:                                      ; preds = %.lr.ph, %12
  %35 = tail call i64 @fwrite(ptr nonnull @.str.39, i64 2, i64 1, ptr %0)
  br label %36

36:                                               ; preds = %._crit_edge, %5
  ret i32 0
}